; ModuleID = '22/459.c'
source_filename = "22/459.c"
target datalayout = "e-m:e-p270:32:32-p271:32:32-p272:64:64-i64:64-f80:128-n8:16:32:64-S128"
target triple = "x86_64-pc-linux-gnu"

@.str = private unnamed_addr constant [3 x i8] c"%c\00", align 1
@.str.1 = private unnamed_addr constant [3 x i8] c"%d\00", align 1
@.str.2 = private unnamed_addr constant [3 x i8] c"No\00", align 1

; Function Attrs: noinline nounwind uwtable
define dso_local i32 @main() #0 {
  %1 = alloca i32, align 4
  %2 = alloca i32, align 4
  %3 = alloca i32, align 4
  %4 = alloca i32, align 4
  %5 = alloca i32, align 4
  %6 = alloca i32, align 4
  %7 = alloca i32, align 4
  %8 = alloca [10000 x i8], align 16
  %9 = alloca [10000 x i32], align 16
  %10 = alloca i8, align 1
  store i32 0, i32* %1, align 4
  store i32 0, i32* %2, align 4
  %11 = getelementptr inbounds [10000 x i32], [10000 x i32]* %9, i64 0, i64 0
  store i32 0, i32* %11, align 16
  store i8 48, i8* %10, align 1
  store i32 0, i32* %2, align 4
  br label %12

12:                                               ; preds = %28, %0
  %13 = load i32, i32* %2, align 4
  %14 = icmp slt i32 %13, 10000
  br i1 %14, label %15, label %31

15:                                               ; preds = %12
  %16 = load i32, i32* %2, align 4
  %17 = sext i32 %16 to i64
  %18 = getelementptr inbounds [10000 x i8], [10000 x i8]* %8, i64 0, i64 %17
  %19 = call i32 (i8*, ...) @__isoc99_scanf(i8* getelementptr inbounds ([3 x i8], [3 x i8]* @.str, i64 0, i64 0), i8* %18)
  %20 = load i32, i32* %2, align 4
  %21 = sext i32 %20 to i64
  %22 = getelementptr inbounds [10000 x i8], [10000 x i8]* %8, i64 0, i64 %21
  %23 = load i8, i8* %22, align 1
  %24 = sext i8 %23 to i32
  %25 = icmp eq i32 %24, 10
  br i1 %25, label %26, label %27

26:                                               ; preds = %15
  br label %31

27:                                               ; preds = %15
  br label %28

28:                                               ; preds = %27
  %29 = load i32, i32* %2, align 4
  %30 = add nsw i32 %29, 1
  store i32 %30, i32* %2, align 4
  br label %12

31:                                               ; preds = %26, %12
  store i32 0, i32* %3, align 4
  store i32 0, i32* %4, align 4
  br label %32

32:                                               ; preds = %82, %31
  %33 = load i32, i32* %3, align 4
  %34 = load i32, i32* %2, align 4
  %35 = icmp slt i32 %33, %34
  br i1 %35, label %36, label %85

36:                                               ; preds = %32
  %37 = load i32, i32* %3, align 4
  %38 = sext i32 %37 to i64
  %39 = getelementptr inbounds [10000 x i8], [10000 x i8]* %8, i64 0, i64 %38
  %40 = load i8, i8* %39, align 1
  %41 = sext i8 %40 to i32
  %42 = icmp sge i32 %41, 48
  br i1 %42, label %43, label %68

43:                                               ; preds = %36
  %44 = load i32, i32* %3, align 4
  %45 = sext i32 %44 to i64
  %46 = getelementptr inbounds [10000 x i8], [10000 x i8]* %8, i64 0, i64 %45
  %47 = load i8, i8* %46, align 1
  %48 = sext i8 %47 to i32
  %49 = icmp sle i32 %48, 57
  br i1 %49, label %50, label %68

50:                                               ; preds = %43
  %51 = load i32, i32* %4, align 4
  %52 = sext i32 %51 to i64
  %53 = getelementptr inbounds [10000 x i32], [10000 x i32]* %9, i64 0, i64 %52
  %54 = load i32, i32* %53, align 4
  %55 = mul nsw i32 %54, 10
  %56 = load i32, i32* %3, align 4
  %57 = sext i32 %56 to i64
  %58 = getelementptr inbounds [10000 x i8], [10000 x i8]* %8, i64 0, i64 %57
  %59 = load i8, i8* %58, align 1
  %60 = sext i8 %59 to i32
  %61 = load i8, i8* %10, align 1
  %62 = sext i8 %61 to i32
  %63 = sub nsw i32 %60, %62
  %64 = add nsw i32 %55, %63
  %65 = load i32, i32* %4, align 4
  %66 = sext i32 %65 to i64
  %67 = getelementptr inbounds [10000 x i32], [10000 x i32]* %9, i64 0, i64 %66
  store i32 %64, i32* %67, align 4
  br label %68

68:                                               ; preds = %50, %43, %36
  %69 = load i32, i32* %3, align 4
  %70 = sext i32 %69 to i64
  %71 = getelementptr inbounds [10000 x i8], [10000 x i8]* %8, i64 0, i64 %70
  %72 = load i8, i8* %71, align 1
  %73 = sext i8 %72 to i32
  %74 = icmp eq i32 %73, 44
  br i1 %74, label %75, label %81

75:                                               ; preds = %68
  %76 = load i32, i32* %4, align 4
  %77 = add nsw i32 %76, 1
  store i32 %77, i32* %4, align 4
  %78 = load i32, i32* %4, align 4
  %79 = sext i32 %78 to i64
  %80 = getelementptr inbounds [10000 x i32], [10000 x i32]* %9, i64 0, i64 %79
  store i32 0, i32* %80, align 4
  br label %81

81:                                               ; preds = %75, %68
  br label %82

82:                                               ; preds = %81
  %83 = load i32, i32* %3, align 4
  %84 = add nsw i32 %83, 1
  store i32 %84, i32* %3, align 4
  br label %32

85:                                               ; preds = %32
  store i32 0, i32* %6, align 4
  br label %86

86:                                               ; preds = %129, %85
  %87 = load i32, i32* %6, align 4
  %88 = load i32, i32* %4, align 4
  %89 = icmp slt i32 %87, %88
  br i1 %89, label %90, label %132

90:                                               ; preds = %86
  store i32 0, i32* %5, align 4
  br label %91

91:                                               ; preds = %125, %90
  %92 = load i32, i32* %5, align 4
  %93 = load i32, i32* %4, align 4
  %94 = icmp slt i32 %92, %93
  br i1 %94, label %95, label %128

95:                                               ; preds = %91
  %96 = load i32, i32* %5, align 4
  %97 = sext i32 %96 to i64
  %98 = getelementptr inbounds [10000 x i32], [10000 x i32]* %9, i64 0, i64 %97
  %99 = load i32, i32* %98, align 4
  %100 = load i32, i32* %5, align 4
  %101 = add nsw i32 %100, 1
  %102 = sext i32 %101 to i64
  %103 = getelementptr inbounds [10000 x i32], [10000 x i32]* %9, i64 0, i64 %102
  %104 = load i32, i32* %103, align 4
  %105 = icmp sle i32 %99, %104
  br i1 %105, label %106, label %124

106:                                              ; preds = %95
  %107 = load i32, i32* %5, align 4
  %108 = sext i32 %107 to i64
  %109 = getelementptr inbounds [10000 x i32], [10000 x i32]* %9, i64 0, i64 %108
  %110 = load i32, i32* %109, align 4
  store i32 %110, i32* %7, align 4
  %111 = load i32, i32* %5, align 4
  %112 = add nsw i32 %111, 1
  %113 = sext i32 %112 to i64
  %114 = getelementptr inbounds [10000 x i32], [10000 x i32]* %9, i64 0, i64 %113
  %115 = load i32, i32* %114, align 4
  %116 = load i32, i32* %5, align 4
  %117 = sext i32 %116 to i64
  %118 = getelementptr inbounds [10000 x i32], [10000 x i32]* %9, i64 0, i64 %117
  store i32 %115, i32* %118, align 4
  %119 = load i32, i32* %7, align 4
  %120 = load i32, i32* %5, align 4
  %121 = add nsw i32 %120, 1
  %122 = sext i32 %121 to i64
  %123 = getelementptr inbounds [10000 x i32], [10000 x i32]* %9, i64 0, i64 %122
  store i32 %119, i32* %123, align 4
  br label %124

124:                                              ; preds = %106, %95
  br label %125

125:                                              ; preds = %124
  %126 = load i32, i32* %5, align 4
  %127 = add nsw i32 %126, 1
  store i32 %127, i32* %5, align 4
  br label %91

128:                                              ; preds = %91
  br label %129

129:                                              ; preds = %128
  %130 = load i32, i32* %6, align 4
  %131 = add nsw i32 %130, 1
  store i32 %131, i32* %6, align 4
  br label %86

132:                                              ; preds = %86
  store i32 0, i32* %3, align 4
  br label %133

133:                                              ; preds = %156, %132
  %134 = load i32, i32* %3, align 4
  %135 = load i32, i32* %4, align 4
  %136 = icmp slt i32 %134, %135
  br i1 %136, label %137, label %159

137:                                              ; preds = %133
  %138 = load i32, i32* %3, align 4
  %139 = sext i32 %138 to i64
  %140 = getelementptr inbounds [10000 x i32], [10000 x i32]* %9, i64 0, i64 %139
  %141 = load i32, i32* %140, align 4
  %142 = load i32, i32* %3, align 4
  %143 = add nsw i32 %142, 1
  %144 = sext i32 %143 to i64
  %145 = getelementptr inbounds [10000 x i32], [10000 x i32]* %9, i64 0, i64 %144
  %146 = load i32, i32* %145, align 4
  %147 = icmp sgt i32 %141, %146
  br i1 %147, label %148, label %155

148:                                              ; preds = %137
  %149 = load i32, i32* %3, align 4
  %150 = add nsw i32 %149, 1
  %151 = sext i32 %150 to i64
  %152 = getelementptr inbounds [10000 x i32], [10000 x i32]* %9, i64 0, i64 %151
  %153 = load i32, i32* %152, align 4
  %154 = call i32 (i8*, ...) @printf(i8* getelementptr inbounds ([3 x i8], [3 x i8]* @.str.1, i64 0, i64 0), i32 %153)
  store i32 0, i32* %1, align 4
  br label %171

155:                                              ; preds = %137
  br label %156

156:                                              ; preds = %155
  %157 = load i32, i32* %3, align 4
  %158 = add nsw i32 %157, 1
  store i32 %158, i32* %3, align 4
  br label %133

159:                                              ; preds = %133
  %160 = load i32, i32* %4, align 4
  %161 = icmp ne i32 %160, 0
  br i1 %161, label %165, label %162

162:                                              ; preds = %159
  %163 = load i32, i32* %4, align 4
  %164 = icmp eq i32 %163, 0
  br label %165

165:                                              ; preds = %162, %159
  %166 = phi i1 [ true, %159 ], [ %164, %162 ]
  %167 = zext i1 %166 to i32
  store i32 %167, i32* %3, align 4
  br i1 %166, label %168, label %170

168:                                              ; preds = %165
  %169 = call i32 (i8*, ...) @printf(i8* getelementptr inbounds ([3 x i8], [3 x i8]* @.str.2, i64 0, i64 0))
  br label %170

170:                                              ; preds = %168, %165
  store i32 0, i32* %1, align 4
  br label %171

171:                                              ; preds = %170, %148
  %172 = load i32, i32* %1, align 4
  ret i32 %172
}

declare dso_local i32 @__isoc99_scanf(i8*, ...) #1

declare dso_local i32 @printf(i8*, ...) #1


!llvm.module.flags = !{!0}
!llvm.ident = !{!1}

!0 = !{i32 1, !"wchar_size", i32 4}
!1 = !{!"clang version 10.0.0-4ubuntu1 "}
